target datalayout = "e-m:e-p270:32:32-p271:32:32-p272:64:64-i64:64-i128:128-f80:128-n8:16:32:64-S128"
target triple = "x86_64-pc-linux-gnu"

%struct.MpegEncContext = type { ptr, i32, i32, i32, [12 x i32], i32, %struct.ScanTable, %struct.ScanTable, [64 x i8], [64 x i8], ptr, ptr, i32, i32, i32, i32, i32, i32, i32, i32, i32, i32, i32, i32, i32, i32, i32, i32, i32, i32, i32, i32, i64, i64, ptr, %struct.BufferPoolContext, i32, i32, %union.anon, i32, %struct.MPVWorkPicture, %struct.MPVWorkPicture, %struct.MPVWorkPicture, i32, [3 x i32], ptr, [3 x ptr], ptr, ptr, ptr, ptr, ptr, ptr, [3 x ptr], i32, ptr, ptr, ptr, ptr, %struct.ScratchpadContext, i32, i32, i32, i32, i32, i32, %struct.BlockDSPContext, %struct.H264ChromaContext, %struct.HpelDSPContext, %struct.IDCTDSPContext, %struct.QpelDSPContext, %struct.VideoDSPContext, %struct.H263DSPContext, ptr, [2 x [2 x ptr]], i32, i32, [2 x [4 x [2 x i32]]], [2 x [2 x i32]], [2 x [2 x [2 x i32]]], [2 x [64 x i16]], i32, i32, i32, i32, i32, [6 x i32], [6 x i32], [3 x ptr], ptr, [64 x i16], [64 x i16], [64 x i16], [64 x i16], i32, i32, %struct.GetBitContext, i32, i32, i32, i32, i32, i32, i32, i32, i32, i32, i32, i32, i32, i32, i32, i64, i64, i16, i16, i16, i16, i32, i32, i32, i32, i32, i32, i32, i32, i32, [3 x i32], i32, i32, i32, i32, i32, i32, %struct.GetBitContext, i32, [2 x [2 x i32]], i32, i32, i32, i32, i32, i32, i32, i32, i32, i32, i32, i32, i32, i32, [2 x i32], i32, i32, ptr, ptr, ptr, ptr, ptr, i32, i32, %struct.ERContext }
%struct.ScanTable = type { ptr, [64 x i8], [64 x i8] }
%struct.BufferPoolContext = type { ptr, ptr, ptr, ptr, ptr, i32, i32, i32 }
%union.anon = type { [32 x ptr] }
%struct.MPVWorkPicture = type { [3 x ptr], [3 x i64], ptr, ptr, [2 x ptr], ptr, ptr, [2 x ptr], i32 }
%struct.ScratchpadContext = type { ptr, ptr, %union.anon.0, i32 }
%union.anon.0 = type { ptr }
%struct.BlockDSPContext = type { ptr, ptr, [2 x ptr] }
%struct.H264ChromaContext = type { [4 x ptr], [4 x ptr] }
%struct.HpelDSPContext = type { [4 x [4 x ptr]], [4 x [4 x ptr]], [4 x [4 x ptr]], [4 x ptr] }
%struct.IDCTDSPContext = type { ptr, ptr, ptr, ptr, ptr, ptr, [64 x i8], i32, i32 }
%struct.QpelDSPContext = type { [2 x [16 x ptr]], [2 x [16 x ptr]], [2 x [16 x ptr]] }
%struct.VideoDSPContext = type { ptr, ptr }
%struct.H263DSPContext = type { ptr, ptr }
%struct.GetBitContext = type { ptr, ptr, i32, i32, i32 }
%struct.ERContext = type { ptr, ptr, i32, ptr, i32, i32, i32, i64, i64, i32, i32, ptr, ptr, [3 x ptr], ptr, ptr, [2 x [4 x [2 x i32]]], %struct.ERPicture, %struct.ERPicture, %struct.ERPicture, [2 x ptr], [2 x ptr], i16, i16, i32, i32, ptr, ptr }
%struct.ERPicture = type { ptr, ptr, ptr, [2 x ptr], [2 x ptr], ptr, i32 }

@ff_msmpeg4_common_init.init_static_once = internal global i32 0, align 4
@ff_old_ff_y_dc_scale_table = external hidden constant [32 x i8], align 16
@ff_wmv1_c_dc_scale_table = external hidden constant [32 x i8], align 16
@ff_mpeg4_y_dc_scale_table = external constant [32 x i8], align 16
@ff_mpeg4_c_dc_scale_table = external constant [32 x i8], align 16
@ff_wmv1_y_dc_scale_table = external hidden constant [32 x i8], align 16
@ff_wmv1_scantable = external hidden constant [4 x [64 x i8]], align 16

; Function Attrs: cold nounwind optsize uwtable
define void @ff_msmpeg4_common_init(ptr noundef %0) #0 {
  %2 = alloca ptr, align 8
  store ptr %0, ptr %2, align 8, !tbaa !4
  %3 = load ptr, ptr %2, align 8, !tbaa !4
  %4 = getelementptr inbounds nuw %struct.MpegEncContext, ptr %3, i32 0, i32 131
  %5 = load i32, ptr %4, align 4, !tbaa !9
  switch i32 %5, label %28 [
    i32 1, label %6
    i32 2, label %6
    i32 3, label %7
    i32 4, label %23
    i32 5, label %23
  ]

6:                                                ; preds = %1, %1
  br label %28

7:                                                ; preds = %1
  %8 = load ptr, ptr %2, align 8, !tbaa !4
  %9 = getelementptr inbounds nuw %struct.MpegEncContext, ptr %8, i32 0, i32 21
  %10 = load i32, ptr %9, align 4, !tbaa !38
  %11 = icmp ne i32 %10, 0
  br i1 %11, label %12, label %17

12:                                               ; preds = %7
  %13 = load ptr, ptr %2, align 8, !tbaa !4
  %14 = getelementptr inbounds nuw %struct.MpegEncContext, ptr %13, i32 0, i32 47
  store ptr @ff_old_ff_y_dc_scale_table, ptr %14, align 8, !tbaa !39
  %15 = load ptr, ptr %2, align 8, !tbaa !4
  %16 = getelementptr inbounds nuw %struct.MpegEncContext, ptr %15, i32 0, i32 48
  store ptr @ff_wmv1_c_dc_scale_table, ptr %16, align 8, !tbaa !40
  br label %22

17:                                               ; preds = %7
  %18 = load ptr, ptr %2, align 8, !tbaa !4
  %19 = getelementptr inbounds nuw %struct.MpegEncContext, ptr %18, i32 0, i32 47
  store ptr @ff_mpeg4_y_dc_scale_table, ptr %19, align 8, !tbaa !39
  %20 = load ptr, ptr %2, align 8, !tbaa !4
  %21 = getelementptr inbounds nuw %struct.MpegEncContext, ptr %20, i32 0, i32 48
  store ptr @ff_mpeg4_c_dc_scale_table, ptr %21, align 8, !tbaa !40
  br label %22

22:                                               ; preds = %17, %12
  br label %28

23:                                               ; preds = %1, %1
  %24 = load ptr, ptr %2, align 8, !tbaa !4
  %25 = getelementptr inbounds nuw %struct.MpegEncContext, ptr %24, i32 0, i32 47
  store ptr @ff_wmv1_y_dc_scale_table, ptr %25, align 8, !tbaa !39
  %26 = load ptr, ptr %2, align 8, !tbaa !4
  %27 = getelementptr inbounds nuw %struct.MpegEncContext, ptr %26, i32 0, i32 48
  store ptr @ff_wmv1_c_dc_scale_table, ptr %27, align 8, !tbaa !40
  br label %28

28:                                               ; preds = %1, %23, %22, %6
  %29 = load ptr, ptr %2, align 8, !tbaa !4
  %30 = getelementptr inbounds nuw %struct.MpegEncContext, ptr %29, i32 0, i32 131
  %31 = load i32, ptr %30, align 4, !tbaa !9
  %32 = icmp uge i32 %31, 4
  br i1 %32, label %33, label %60

33:                                               ; preds = %28
  %34 = load ptr, ptr %2, align 8, !tbaa !4
  %35 = getelementptr inbounds nuw %struct.MpegEncContext, ptr %34, i32 0, i32 69
  %36 = getelementptr inbounds nuw %struct.IDCTDSPContext, ptr %35, i32 0, i32 6
  %37 = getelementptr inbounds [64 x i8], ptr %36, i64 0, i64 0
  %38 = load ptr, ptr %2, align 8, !tbaa !4
  %39 = getelementptr inbounds nuw %struct.MpegEncContext, ptr %38, i32 0, i32 7
  call void @ff_init_scantable(ptr noundef %37, ptr noundef %39, ptr noundef getelementptr inbounds ([4 x [64 x i8]], ptr @ff_wmv1_scantable, i64 0, i64 1))
  %40 = load ptr, ptr %2, align 8, !tbaa !4
  %41 = getelementptr inbounds nuw %struct.MpegEncContext, ptr %40, i32 0, i32 69
  %42 = getelementptr inbounds nuw %struct.IDCTDSPContext, ptr %41, i32 0, i32 6
  %43 = getelementptr inbounds [64 x i8], ptr %42, i64 0, i64 0
  %44 = load ptr, ptr %2, align 8, !tbaa !4
  %45 = getelementptr inbounds nuw %struct.MpegEncContext, ptr %44, i32 0, i32 6
  call void @ff_init_scantable(ptr noundef %43, ptr noundef %45, ptr noundef @ff_wmv1_scantable)
  %46 = load ptr, ptr %2, align 8, !tbaa !4
  %47 = getelementptr inbounds nuw %struct.MpegEncContext, ptr %46, i32 0, i32 8
  %48 = getelementptr inbounds [64 x i8], ptr %47, i64 0, i64 0
  %49 = load ptr, ptr %2, align 8, !tbaa !4
  %50 = getelementptr inbounds nuw %struct.MpegEncContext, ptr %49, i32 0, i32 69
  %51 = getelementptr inbounds nuw %struct.IDCTDSPContext, ptr %50, i32 0, i32 6
  %52 = getelementptr inbounds [64 x i8], ptr %51, i64 0, i64 0
  call void @ff_permute_scantable(ptr noundef %48, ptr noundef getelementptr inbounds ([4 x [64 x i8]], ptr @ff_wmv1_scantable, i64 0, i64 2), ptr noundef %52)
  %53 = load ptr, ptr %2, align 8, !tbaa !4
  %54 = getelementptr inbounds nuw %struct.MpegEncContext, ptr %53, i32 0, i32 9
  %55 = getelementptr inbounds [64 x i8], ptr %54, i64 0, i64 0
  %56 = load ptr, ptr %2, align 8, !tbaa !4
  %57 = getelementptr inbounds nuw %struct.MpegEncContext, ptr %56, i32 0, i32 69
  %58 = getelementptr inbounds nuw %struct.IDCTDSPContext, ptr %57, i32 0, i32 6
  %59 = getelementptr inbounds [64 x i8], ptr %58, i64 0, i64 0
  call void @ff_permute_scantable(ptr noundef %55, ptr noundef getelementptr inbounds ([4 x [64 x i8]], ptr @ff_wmv1_scantable, i64 0, i64 3), ptr noundef %59)
  br label %60

60:                                               ; preds = %33, %28
  %61 = call i32 @pthread_once(ptr noundef @ff_msmpeg4_common_init.init_static_once, ptr noundef @msmpeg4_common_init_static)
  ret void
}