; Function Attrs: cold nounwind optsize uwtable
define void @ff_msmpeg4_common_init(ptr noundef %0) local_unnamed_addr #0 {
  %2 = getelementptr inbounds nuw i8, ptr %0, i64 4148
  %3 = load i32, ptr %2, align 4, !tbaa !4
  switch i32 %3, label %13 [
    i32 5, label %.thread17
    i32 4, label %.thread17
    i32 3, label %4
  ]

4:                                                ; preds = %1
  %5 = getelementptr inbounds nuw i8, ptr %0, i64 524
  %6 = load i32, ptr %5, align 4, !tbaa !36
  %.not = icmp eq i32 %6, 0
  %7 = getelementptr inbounds nuw i8, ptr %0, i64 1328
  %8 = getelementptr inbounds nuw i8, ptr %0, i64 1336
  br i1 %.not, label %10, label %9

9:                                                ; preds = %4
  store ptr @ff_old_ff_y_dc_scale_table, ptr %7, align 8, !tbaa !37
  store ptr @ff_wmv1_c_dc_scale_table, ptr %8, align 8, !tbaa !38
  br label %.thread

10:                                               ; preds = %4
  store ptr @ff_mpeg4_y_dc_scale_table, ptr %7, align 8, !tbaa !37
  store ptr @ff_mpeg4_c_dc_scale_table, ptr %8, align 8, !tbaa !38
  br label %.thread

.thread17:                                        ; preds = %1, %1
  %11 = getelementptr inbounds nuw i8, ptr %0, i64 1328
  store ptr @ff_wmv1_y_dc_scale_table, ptr %11, align 8, !tbaa !37
  %12 = getelementptr inbounds nuw i8, ptr %0, i64 1336
  store ptr @ff_wmv1_c_dc_scale_table, ptr %12, align 8, !tbaa !38
  br label %15

13:                                               ; preds = %1
  %14 = icmp ugt i32 %3, 3
  br i1 %14, label %15, label %.thread

15:                                               ; preds = %.thread17, %13
  %16 = getelementptr inbounds nuw i8, ptr %0, i64 2056
  %17 = getelementptr inbounds nuw i8, ptr %0, i64 208
  tail call void @ff_init_scantable(ptr noundef nonnull %16, ptr noundef nonnull %17, ptr noundef nonnull getelementptr inbounds nuw (i8, ptr @ff_wmv1_scantable, i64 64)) #6
  %18 = getelementptr inbounds nuw i8, ptr %0, i64 72
  tail call void @ff_init_scantable(ptr noundef nonnull %16, ptr noundef nonnull %18, ptr noundef nonnull @ff_wmv1_scantable) #6
  %19 = getelementptr inbounds nuw i8, ptr %0, i64 344
  tail call void @ff_permute_scantable(ptr noundef nonnull %19, ptr noundef nonnull getelementptr inbounds nuw (i8, ptr @ff_wmv1_scantable, i64 128), ptr noundef nonnull %16) #6
  %20 = getelementptr inbounds nuw i8, ptr %0, i64 408
  tail call void @ff_permute_scantable(ptr noundef nonnull %20, ptr noundef nonnull getelementptr inbounds nuw (i8, ptr @ff_wmv1_scantable, i64 192), ptr noundef nonnull %16) #6
  br label %.thread

.thread:                                          ; preds = %10, %9, %15, %13
  %21 = tail call i32 @pthread_once(ptr noundef nonnull @ff_msmpeg4_common_init.init_static_once, ptr noundef nonnull @msmpeg4_common_init_static) #6
  ret void
}